target datalayout = "e-m:e-p270:32:32-p271:32:32-p272:64:64-i64:64-i128:128-f80:128-n8:16:32:64-S128"
target triple = "x86_64-pc-linux-gnu"

; Function Attrs: nounwind uwtable
define i32 @cvSensRhsInternalDQ(i32 noundef %0, double noundef %1, ptr noundef %2, ptr noundef %3, ptr noundef %4, ptr noundef %5, ptr noundef %6, ptr noundef %7, ptr noundef %8) #0 {
  %10 = alloca i32, align 4
  %11 = alloca i32, align 4
  %12 = alloca double, align 8
  %13 = alloca ptr, align 8
  %14 = alloca ptr, align 8
  %15 = alloca ptr, align 8
  %16 = alloca ptr, align 8
  %17 = alloca ptr, align 8
  %18 = alloca ptr, align 8
  %19 = alloca ptr, align 8
  %20 = alloca i32, align 4
  %21 = alloca i32, align 4
  %22 = alloca i32, align 4
  store i32 %0, ptr %11, align 4, !tbaa !3
  store double %1, ptr %12, align 8, !tbaa !150
  store ptr %2, ptr %13, align 8, !tbaa !151
  store ptr %3, ptr %14, align 8, !tbaa !151
  store ptr %4, ptr %15, align 8, !tbaa !152
  store ptr %5, ptr %16, align 8, !tbaa !152
  store ptr %6, ptr %17, align 8, !tbaa !153
  store ptr %7, ptr %18, align 8, !tbaa !151
  store ptr %8, ptr %19, align 8, !tbaa !151
  call void @llvm.lifetime.start.p0(i64 4, ptr %20) #10
  call void @llvm.lifetime.start.p0(i64 4, ptr %21) #10
  store i32 0, ptr %20, align 4, !tbaa !3
  br label %23

23:                                               ; preds = %52, %9
  %24 = load i32, ptr %20, align 4, !tbaa !3
  %25 = load i32, ptr %11, align 4, !tbaa !3
  %26 = icmp slt i32 %24, %25
  br i1 %26, label %27, label %55

27:                                               ; preds = %23
  %28 = load i32, ptr %11, align 4, !tbaa !3
  %29 = load double, ptr %12, align 8, !tbaa !150
  %30 = load ptr, ptr %13, align 8, !tbaa !151
  %31 = load ptr, ptr %14, align 8, !tbaa !151
  %32 = load i32, ptr %20, align 4, !tbaa !3
  %33 = load ptr, ptr %15, align 8, !tbaa !152
  %34 = load i32, ptr %20, align 4, !tbaa !3
  %35 = sext i32 %34 to i64
  %36 = getelementptr inbounds ptr, ptr %33, i64 %35
  %37 = load ptr, ptr %36, align 8, !tbaa !151
  %38 = load ptr, ptr %16, align 8, !tbaa !152
  %39 = load i32, ptr %20, align 4, !tbaa !3
  %40 = sext i32 %39 to i64
  %41 = getelementptr inbounds ptr, ptr %38, i64 %40
  %42 = load ptr, ptr %41, align 8, !tbaa !151
  %43 = load ptr, ptr %17, align 8, !tbaa !153
  %44 = load ptr, ptr %18, align 8, !tbaa !151
  %45 = load ptr, ptr %19, align 8, !tbaa !151
  %46 = call i32 @cvSensRhs1InternalDQ(i32 noundef %28, double noundef %29, ptr noundef %30, ptr noundef %31, i32 noundef %32, ptr noundef %37, ptr noundef %42, ptr noundef %43, ptr noundef %44, ptr noundef %45)
  store i32 %46, ptr %21, align 4, !tbaa !3
  %47 = load i32, ptr %21, align 4, !tbaa !3
  %48 = icmp ne i32 %47, 0
  br i1 %48, label %49, label %51

49:                                               ; preds = %27
  %50 = load i32, ptr %21, align 4, !tbaa !3
  store i32 %50, ptr %10, align 4
  store i32 1, ptr %22, align 4
  br label %56

51:                                               ; preds = %27
  br label %52

52:                                               ; preds = %51
  %53 = load i32, ptr %20, align 4, !tbaa !3
  %54 = add nsw i32 %53, 1
  store i32 %54, ptr %20, align 4, !tbaa !3
  br label %23

55:                                               ; preds = %23
  store i32 0, ptr %10, align 4
  store i32 1, ptr %22, align 4
  br label %56

56:                                               ; preds = %55, %49
  call void @llvm.lifetime.end.p0(i64 4, ptr %21) #10
  call void @llvm.lifetime.end.p0(i64 4, ptr %20) #10
  %57 = load i32, ptr %10, align 4
  ret i32 %57
}