; Function Attrs: nounwind uwtable
define i32 @cvSensRhsInternalDQ(i32 noundef %0, double noundef %1, ptr noundef %2, ptr noundef %3, ptr noundef readonly captures(none) %4, ptr noundef readonly captures(none) %5, ptr noundef captures(none) %6, ptr noundef %7, ptr noundef %8) #0 {
  %10 = icmp sgt i32 %0, 0
  br i1 %10, label %.lr.ph.preheader, label %._crit_edge

.lr.ph.preheader:                                 ; preds = %9
  %wide.trip.count = zext nneg i32 %0 to i64
  br label %.lr.ph

11:                                               ; preds = %.lr.ph
  %indvars.iv.next = add nuw nsw i64 %indvars.iv, 1
  %exitcond.not = icmp eq i64 %indvars.iv.next, %wide.trip.count
  br i1 %exitcond.not, label %._crit_edge, label %.lr.ph

.lr.ph:                                           ; preds = %.lr.ph.preheader, %11
  %indvars.iv = phi i64 [ 0, %.lr.ph.preheader ], [ %indvars.iv.next, %11 ]
  %12 = getelementptr inbounds nuw ptr, ptr %4, i64 %indvars.iv
  %13 = load ptr, ptr %12, align 8, !tbaa !65
  %14 = getelementptr inbounds nuw ptr, ptr %5, i64 %indvars.iv
  %15 = load ptr, ptr %14, align 8, !tbaa !65
  %16 = trunc nuw nsw i64 %indvars.iv to i32
  %17 = tail call i32 @cvSensRhs1InternalDQ(i32 poison, double noundef %1, ptr noundef %2, ptr noundef %3, i32 noundef %16, ptr noundef %13, ptr noundef %15, ptr noundef %6, ptr noundef %7, ptr noundef %8)
  %.not = icmp eq i32 %17, 0
  br i1 %.not, label %11, label %._crit_edge

._crit_edge:                                      ; preds = %.lr.ph, %11, %9
  %.0 = phi i32 [ 0, %9 ], [ 0, %11 ], [ %17, %.lr.ph ]
  ret i32 %.0
}